target datalayout = "e-m:e-p270:32:32-p271:32:32-p272:64:64-i64:64-i128:128-f80:128-n8:16:32:64-S128"
target triple = "x86_64-pc-linux-gnu"

%struct.uv_udp_s = type { ptr, ptr, i32, ptr, %struct.uv__queue, %union.anon, ptr, i32, i64, i64, ptr, ptr, %struct.uv__io_s, %struct.uv__queue, %struct.uv__queue }
%union.anon = type { [4 x ptr] }
%struct.uv__io_s = type { ptr, %struct.uv__queue, %struct.uv__queue, i32, i32, i32 }
%struct.uv__queue = type { ptr, ptr }
%struct.uv_udp_send_s = type { ptr, i32, [6 x ptr], ptr, ptr, %struct.uv__queue, %union.anon.4, i32, ptr, i64, ptr, [4 x %struct.uv_buf_t] }
%union.anon.4 = type { %struct.sockaddr_storage }
%struct.sockaddr_storage = type { i16, [118 x i8], i64 }
%struct.uv_buf_t = type { ptr, i64 }

; Function Attrs: inlinehint nounwind uwtable
define internal void @uv__queue_insert_tail(ptr noundef %0, ptr noundef %1) #3 {
  %3 = alloca ptr, align 8
  %4 = alloca ptr, align 8
  store ptr %0, ptr %3, align 8
  store ptr %1, ptr %4, align 8
  %5 = load ptr, ptr %3, align 8
  %6 = load ptr, ptr %4, align 8
  %7 = getelementptr inbounds nuw %struct.uv__queue, ptr %6, i32 0, i32 0
  store ptr %5, ptr %7, align 8
  %8 = load ptr, ptr %3, align 8
  %9 = getelementptr inbounds nuw %struct.uv__queue, ptr %8, i32 0, i32 1
  %10 = load ptr, ptr %9, align 8
  %11 = load ptr, ptr %4, align 8
  %12 = getelementptr inbounds nuw %struct.uv__queue, ptr %11, i32 0, i32 1
  store ptr %10, ptr %12, align 8
  %13 = load ptr, ptr %4, align 8
  %14 = load ptr, ptr %4, align 8
  %15 = getelementptr inbounds nuw %struct.uv__queue, ptr %14, i32 0, i32 1
  %16 = load ptr, ptr %15, align 8
  %17 = getelementptr inbounds nuw %struct.uv__queue, ptr %16, i32 0, i32 0
  store ptr %13, ptr %17, align 8
  %18 = load ptr, ptr %4, align 8
  %19 = load ptr, ptr %3, align 8
  %20 = getelementptr inbounds nuw %struct.uv__queue, ptr %19, i32 0, i32 1
  store ptr %18, ptr %20, align 8
  ret void
}

; Function Attrs: inlinehint nounwind uwtable
define internal void @uv__queue_remove(ptr noundef %0) #3 {
  %2 = alloca ptr, align 8
  store ptr %0, ptr %2, align 8
  %3 = load ptr, ptr %2, align 8
  %4 = getelementptr inbounds nuw %struct.uv__queue, ptr %3, i32 0, i32 0
  %5 = load ptr, ptr %4, align 8
  %6 = load ptr, ptr %2, align 8
  %7 = getelementptr inbounds nuw %struct.uv__queue, ptr %6, i32 0, i32 1
  %8 = load ptr, ptr %7, align 8
  %9 = getelementptr inbounds nuw %struct.uv__queue, ptr %8, i32 0, i32 0
  store ptr %5, ptr %9, align 8
  %10 = load ptr, ptr %2, align 8
  %11 = getelementptr inbounds nuw %struct.uv__queue, ptr %10, i32 0, i32 1
  %12 = load ptr, ptr %11, align 8
  %13 = load ptr, ptr %2, align 8
  %14 = getelementptr inbounds nuw %struct.uv__queue, ptr %13, i32 0, i32 0
  %15 = load ptr, ptr %14, align 8
  %16 = getelementptr inbounds nuw %struct.uv__queue, ptr %15, i32 0, i32 1
  store ptr %12, ptr %16, align 8
  ret void
}

; Function Attrs: inlinehint nounwind uwtable
define internal ptr @uv__queue_next(ptr noundef %0) #3 {
  %2 = alloca ptr, align 8
  store ptr %0, ptr %2, align 8
  %3 = load ptr, ptr %2, align 8
  %4 = getelementptr inbounds nuw %struct.uv__queue, ptr %3, i32 0, i32 0
  %5 = load ptr, ptr %4, align 8
  ret ptr %5
}

; Function Attrs: inlinehint nounwind uwtable
define internal ptr @uv__queue_head(ptr noundef %0) #3 {
  %2 = alloca ptr, align 8
  store ptr %0, ptr %2, align 8
  %3 = load ptr, ptr %2, align 8
  %4 = getelementptr inbounds nuw %struct.uv__queue, ptr %3, i32 0, i32 0
  %5 = load ptr, ptr %4, align 8
  ret ptr %5
}

; Function Attrs: inlinehint nounwind uwtable
define internal i32 @uv__queue_empty(ptr noundef %0) #3 {
  %2 = alloca ptr, align 8
  store ptr %0, ptr %2, align 8
  %3 = load ptr, ptr %2, align 8
  %4 = load ptr, ptr %2, align 8
  %5 = getelementptr inbounds nuw %struct.uv__queue, ptr %4, i32 0, i32 0
  %6 = load ptr, ptr %5, align 8
  %7 = icmp eq ptr %3, %6
  %8 = zext i1 %7 to i32
  ret i32 %8
}

; Function Attrs: nounwind uwtable
define internal void @uv__udp_sendmsg(ptr noundef %0) #0 {
  %2 = alloca ptr, align 8
  %3 = alloca ptr, align 8
  %4 = alloca ptr, align 8
  %5 = alloca ptr, align 8
  %6 = alloca i32, align 4
  %7 = alloca i32, align 4
  store ptr %0, ptr %2, align 8
  %8 = call ptr @llvm.stacksave.p0()
  store ptr %8, ptr %3, align 8
  %9 = alloca ptr, i64 20, align 16
  %10 = alloca i32, i64 20, align 16
  %11 = alloca ptr, i64 20, align 16
  call void @llvm.lifetime.start.p0(i64 8, ptr %4) #10
  call void @llvm.lifetime.start.p0(i64 8, ptr %5) #10
  call void @llvm.lifetime.start.p0(i64 4, ptr %6) #10
  %12 = load ptr, ptr %2, align 8
  %13 = getelementptr inbounds nuw %struct.uv_udp_s, ptr %12, i32 0, i32 13
  %14 = call i32 @uv__queue_empty(ptr noundef %13)
  %15 = icmp ne i32 %14, 0
  br i1 %15, label %16, label %17

16:                                               ; preds = %1
  store i32 1, ptr %7, align 4
  br label %125

17:                                               ; preds = %1
  br label %18

18:                                               ; preds = %98, %17
  store i32 0, ptr %6, align 4
  %19 = load ptr, ptr %2, align 8
  %20 = getelementptr inbounds nuw %struct.uv_udp_s, ptr %19, i32 0, i32 13
  %21 = call ptr @uv__queue_head(ptr noundef %20)
  store ptr %21, ptr %4, align 8
  br label %22

22:                                               ; preds = %54, %18
  %23 = load ptr, ptr %4, align 8
  %24 = getelementptr inbounds i8, ptr %23, i64 -80
  store ptr %24, ptr %5, align 8
  %25 = load ptr, ptr %5, align 8
  %26 = getelementptr inbounds nuw %struct.uv_udp_send_s, ptr %25, i32 0, i32 6
  %27 = load i32, ptr %6, align 4
  %28 = sext i32 %27 to i64
  %29 = getelementptr inbounds ptr, ptr %9, i64 %28
  store ptr %26, ptr %29, align 8
  %30 = load ptr, ptr %5, align 8
  %31 = getelementptr inbounds nuw %struct.uv_udp_send_s, ptr %30, i32 0, i32 7
  %32 = load i32, ptr %31, align 8
  %33 = load i32, ptr %6, align 4
  %34 = sext i32 %33 to i64
  %35 = getelementptr inbounds i32, ptr %10, i64 %34
  store i32 %32, ptr %35, align 4
  %36 = load ptr, ptr %5, align 8
  %37 = getelementptr inbounds nuw %struct.uv_udp_send_s, ptr %36, i32 0, i32 8
  %38 = load ptr, ptr %37, align 8
  %39 = load i32, ptr %6, align 4
  %40 = sext i32 %39 to i64
  %41 = getelementptr inbounds ptr, ptr %11, i64 %40
  store ptr %38, ptr %41, align 8
  %42 = load ptr, ptr %4, align 8
  %43 = call ptr @uv__queue_next(ptr noundef %42)
  store ptr %43, ptr %4, align 8
  %44 = load i32, ptr %6, align 4
  %45 = add nsw i32 %44, 1
  store i32 %45, ptr %6, align 4
  br label %46

46:                                               ; preds = %22
  %47 = load i32, ptr %6, align 4
  %48 = icmp slt i32 %47, 20
  br i1 %48, label %49, label %54

49:                                               ; preds = %46
  %50 = load ptr, ptr %4, align 8
  %51 = load ptr, ptr %2, align 8
  %52 = getelementptr inbounds nuw %struct.uv_udp_s, ptr %51, i32 0, i32 13
  %53 = icmp ne ptr %50, %52
  br label %54

54:                                               ; preds = %49, %46
  %55 = phi i1 [ false, %46 ], [ %53, %49 ]
  br i1 %55, label %22, label %56

56:                                               ; preds = %54
  %57 = load ptr, ptr %2, align 8
  %58 = getelementptr inbounds nuw %struct.uv_udp_s, ptr %57, i32 0, i32 12
  %59 = getelementptr inbounds nuw %struct.uv__io_s, ptr %58, i32 0, i32 5
  %60 = load i32, ptr %59, align 8
  %61 = load i32, ptr %6, align 4
  %62 = call i32 @uv__udp_sendmsgv(i32 noundef %60, i32 noundef %61, ptr noundef %11, ptr noundef %10, ptr noundef %9)
  store i32 %62, ptr %6, align 4
  br label %63

63:                                               ; preds = %66, %56
  %64 = load i32, ptr %6, align 4
  %65 = icmp sgt i32 %64, 0
  br i1 %65, label %66, label %89

66:                                               ; preds = %63
  %67 = load ptr, ptr %2, align 8
  %68 = getelementptr inbounds nuw %struct.uv_udp_s, ptr %67, i32 0, i32 13
  %69 = call ptr @uv__queue_head(ptr noundef %68)
  store ptr %69, ptr %4, align 8
  %70 = load ptr, ptr %4, align 8
  %71 = getelementptr inbounds i8, ptr %70, i64 -80
  store ptr %71, ptr %5, align 8
  %72 = load ptr, ptr %5, align 8
  %73 = getelementptr inbounds nuw %struct.uv_udp_send_s, ptr %72, i32 0, i32 8
  %74 = load ptr, ptr %73, align 8
  %75 = load ptr, ptr %5, align 8
  %76 = getelementptr inbounds nuw %struct.uv_udp_send_s, ptr %75, i32 0, i32 7
  %77 = load i32, ptr %76, align 8
  %78 = call i64 @uv__count_bufs(ptr noundef %74, i32 noundef %77)
  %79 = load ptr, ptr %5, align 8
  %80 = getelementptr inbounds nuw %struct.uv_udp_send_s, ptr %79, i32 0, i32 9
  store i64 %78, ptr %80, align 8
  %81 = load ptr, ptr %5, align 8
  %82 = getelementptr inbounds nuw %struct.uv_udp_send_s, ptr %81, i32 0, i32 5
  call void @uv__queue_remove(ptr noundef %82)
  %83 = load ptr, ptr %2, align 8
  %84 = getelementptr inbounds nuw %struct.uv_udp_s, ptr %83, i32 0, i32 14
  %85 = load ptr, ptr %5, align 8
  %86 = getelementptr inbounds nuw %struct.uv_udp_send_s, ptr %85, i32 0, i32 5
  call void @uv__queue_insert_tail(ptr noundef %84, ptr noundef %86)
  %87 = load i32, ptr %6, align 4
  %88 = add nsw i32 %87, -1
  store i32 %88, ptr %6, align 4
  br label %63

89:                                               ; preds = %63
  %90 = load i32, ptr %6, align 4
  %91 = icmp eq i32 %90, 0
  br i1 %91, label %92, label %99

92:                                               ; preds = %89
  %93 = load ptr, ptr %2, align 8
  %94 = getelementptr inbounds nuw %struct.uv_udp_s, ptr %93, i32 0, i32 13
  %95 = call i32 @uv__queue_empty(ptr noundef %94)
  %96 = icmp ne i32 %95, 0
  br i1 %96, label %97, label %98

97:                                               ; preds = %92
  br label %119

98:                                               ; preds = %92
  br label %18

99:                                               ; preds = %89
  %100 = load i32, ptr %6, align 4
  %101 = icmp eq i32 %100, -11
  br i1 %101, label %102, label %103

102:                                              ; preds = %99
  store i32 1, ptr %7, align 4
  br label %125

103:                                              ; preds = %99
  %104 = load ptr, ptr %2, align 8
  %105 = getelementptr inbounds nuw %struct.uv_udp_s, ptr %104, i32 0, i32 13
  %106 = call ptr @uv__queue_head(ptr noundef %105)
  store ptr %106, ptr %4, align 8
  %107 = load ptr, ptr %4, align 8
  %108 = getelementptr inbounds i8, ptr %107, i64 -80
  store ptr %108, ptr %5, align 8
  %109 = load i32, ptr %6, align 4
  %110 = sext i32 %109 to i64
  %111 = load ptr, ptr %5, align 8
  %112 = getelementptr inbounds nuw %struct.uv_udp_send_s, ptr %111, i32 0, i32 9
  store i64 %110, ptr %112, align 8
  %113 = load ptr, ptr %5, align 8
  %114 = getelementptr inbounds nuw %struct.uv_udp_send_s, ptr %113, i32 0, i32 5
  call void @uv__queue_remove(ptr noundef %114)
  %115 = load ptr, ptr %2, align 8
  %116 = getelementptr inbounds nuw %struct.uv_udp_s, ptr %115, i32 0, i32 14
  %117 = load ptr, ptr %5, align 8
  %118 = getelementptr inbounds nuw %struct.uv_udp_send_s, ptr %117, i32 0, i32 5
  call void @uv__queue_insert_tail(ptr noundef %116, ptr noundef %118)
  br label %119

119:                                              ; preds = %103, %97
  %120 = load ptr, ptr %2, align 8
  %121 = getelementptr inbounds nuw %struct.uv_udp_s, ptr %120, i32 0, i32 1
  %122 = load ptr, ptr %121, align 8
  %123 = load ptr, ptr %2, align 8
  %124 = getelementptr inbounds nuw %struct.uv_udp_s, ptr %123, i32 0, i32 12
  call void @uv__io_feed(ptr noundef %122, ptr noundef %124)
  store i32 0, ptr %7, align 4
  br label %125

125:                                              ; preds = %119, %102, %16
  call void @llvm.lifetime.end.p0(i64 4, ptr %6) #10
  call void @llvm.lifetime.end.p0(i64 8, ptr %5) #10
  call void @llvm.lifetime.end.p0(i64 8, ptr %4) #10
  %126 = load ptr, ptr %3, align 8
  call void @llvm.stackrestore.p0(ptr %126)
  %127 = load i32, ptr %7, align 4
  switch i32 %127, label %129 [
    i32 0, label %128
    i32 1, label %128
  ]

128:                                              ; preds = %125, %125
  ret void

129:                                              ; preds = %125
  unreachable
}