; Function Attrs: nounwind uwtable
define internal fastcc void @uv__udp_sendmsg(ptr noundef %0) unnamed_addr #0 {
  %2 = alloca [20 x ptr], align 16
  %3 = alloca [20 x i32], align 16
  %4 = alloca [20 x ptr], align 16
  %5 = getelementptr inbounds nuw i8, ptr %0, i64 184
  %6 = load ptr, ptr %5, align 8
  %.not = icmp eq ptr %5, %6
  br i1 %.not, label %.loopexit, label %.preheader

.preheader:                                       ; preds = %1
  %7 = getelementptr inbounds nuw i8, ptr %0, i64 176
  %8 = getelementptr inbounds nuw i8, ptr %0, i64 200
  %9 = getelementptr inbounds nuw i8, ptr %0, i64 208
  br label %10

10:                                               ; preds = %.backedge, %.preheader
  %indvars.iv = phi i64 [ 0, %.preheader ], [ %indvars.iv.be, %.backedge ]
  %.038 = phi ptr [ %6, %.preheader ], [ %.038.be, %.backedge ]
  %11 = getelementptr inbounds nuw i8, ptr %.038, i64 16
  %12 = getelementptr inbounds nuw ptr, ptr %2, i64 %indvars.iv
  store ptr %11, ptr %12, align 8
  %13 = getelementptr inbounds nuw i8, ptr %.038, i64 144
  %14 = load i32, ptr %13, align 8
  %15 = getelementptr inbounds nuw i32, ptr %3, i64 %indvars.iv
  store i32 %14, ptr %15, align 4
  %16 = getelementptr inbounds nuw i8, ptr %.038, i64 152
  %17 = load ptr, ptr %16, align 8
  %18 = getelementptr inbounds nuw ptr, ptr %4, i64 %indvars.iv
  store ptr %17, ptr %18, align 8
  %.038.val = load ptr, ptr %.038, align 8
  %indvars.iv.next = add nuw nsw i64 %indvars.iv, 1
  %19 = icmp samesign ult i64 %indvars.iv, 19
  %20 = icmp ne ptr %.038.val, %5
  %21 = select i1 %19, i1 %20, i1 false
  br i1 %21, label %.backedge, label %22

.backedge:                                        ; preds = %10, %._crit_edge.thread
  %indvars.iv.be = phi i64 [ %indvars.iv.next, %10 ], [ 0, %._crit_edge.thread ]
  %.038.be = phi ptr [ %.038.val, %10 ], [ %41, %._crit_edge.thread ]
  br label %10

22:                                               ; preds = %10
  %23 = trunc nuw nsw i64 %indvars.iv.next to i32
  %24 = load i32, ptr %7, align 8
  %25 = call fastcc i32 @uv__udp_sendmsgv(i32 noundef %24, i32 noundef %23, ptr noundef nonnull %4, ptr noundef nonnull %3, ptr noundef nonnull %2)
  %26 = icmp sgt i32 %25, 0
  br i1 %26, label %.lr.ph, label %._crit_edge

.lr.ph:                                           ; preds = %22, %.lr.ph
  %.149 = phi i32 [ %39, %.lr.ph ], [ %25, %22 ]
  %.val40 = load ptr, ptr %5, align 8
  %27 = getelementptr inbounds nuw i8, ptr %.val40, i64 152
  %28 = load ptr, ptr %27, align 8
  %29 = getelementptr inbounds nuw i8, ptr %.val40, i64 144
  %30 = load i32, ptr %29, align 8
  %31 = tail call i64 @uv__count_bufs(ptr noundef %28, i32 noundef %30) #10
  %32 = getelementptr inbounds nuw i8, ptr %.val40, i64 160
  store i64 %31, ptr %32, align 8
  %33 = load ptr, ptr %.val40, align 8
  %34 = getelementptr inbounds nuw i8, ptr %.val40, i64 8
  %35 = load ptr, ptr %34, align 8
  store ptr %33, ptr %35, align 8
  %36 = load ptr, ptr %34, align 8
  %37 = getelementptr inbounds nuw i8, ptr %33, i64 8
  store ptr %36, ptr %37, align 8
  store ptr %8, ptr %.val40, align 8
  %38 = load ptr, ptr %9, align 8
  store ptr %38, ptr %34, align 8
  store ptr %.val40, ptr %38, align 8
  store ptr %.val40, ptr %9, align 8
  %39 = add nsw i32 %.149, -1
  %40 = icmp samesign ugt i32 %.149, 1
  br i1 %40, label %.lr.ph, label %._crit_edge.thread

._crit_edge:                                      ; preds = %22
  switch i32 %25, label %42 [
    i32 0, label %._crit_edge.thread
    i32 -11, label %.loopexit
  ]

._crit_edge.thread:                               ; preds = %.lr.ph, %._crit_edge
  %41 = load ptr, ptr %5, align 8
  %.not42 = icmp eq ptr %5, %41
  br i1 %.not42, label %.loopexit43, label %.backedge

42:                                               ; preds = %._crit_edge
  %.val = load ptr, ptr %5, align 8
  %43 = sext i32 %25 to i64
  %44 = getelementptr inbounds nuw i8, ptr %.val, i64 160
  store i64 %43, ptr %44, align 8
  %45 = load ptr, ptr %.val, align 8
  %46 = getelementptr inbounds nuw i8, ptr %.val, i64 8
  %47 = load ptr, ptr %46, align 8
  store ptr %45, ptr %47, align 8
  %48 = load ptr, ptr %46, align 8
  %49 = getelementptr inbounds nuw i8, ptr %45, i64 8
  store ptr %48, ptr %49, align 8
  store ptr %8, ptr %.val, align 8
  %50 = load ptr, ptr %9, align 8
  store ptr %50, ptr %46, align 8
  store ptr %.val, ptr %50, align 8
  store ptr %.val, ptr %9, align 8
  br label %.loopexit43

.loopexit43:                                      ; preds = %._crit_edge.thread, %42
  %51 = getelementptr inbounds nuw i8, ptr %0, i64 128
  %52 = getelementptr inbounds nuw i8, ptr %0, i64 8
  %53 = load ptr, ptr %52, align 8
  tail call void @uv__io_feed(ptr noundef %53, ptr noundef nonnull %51) #10
  br label %.loopexit

.loopexit:                                        ; preds = %._crit_edge, %1, %.loopexit43
  ret void
}